target datalayout = "e-m:e-p270:32:32-p271:32:32-p272:64:64-i64:64-i128:128-f80:128-n8:16:32:64-S128"
target triple = "x86_64-unknown-linux-gnu"

%class.mpq = type { %class.mpz, %class.mpz }
%class.mpz = type { i32, i8, ptr }
%class.bound_propagator = type { ptr, ptr, %class.linear_equation_manager, %class.svector.4, %class.svector.0, %class.svector.0, %class.ptr_vector, %class.ptr_vector, %class.vector.7, %class.svector.8, i32, %class.svector.2, %class.svector.2, %class.svector.2, i32, i32, %class.mpq, %class.svector.10, %class.svector.2, i32, double, double, double, i32, i32, i32, %class.svector.12 }
%class.linear_equation_manager = type { ptr, ptr, %class.numeral_buffer, %class.numeral_buffer, %class.svector.0, %class.svector.2 }
%class.numeral_buffer = type { ptr, %class.svector }
%class.svector = type { %class.vector }
%class.vector = type { ptr }
%class.svector.4 = type { %class.vector.5 }
%class.vector.5 = type { ptr }
%class.svector.0 = type { %class.vector.1 }
%class.vector.1 = type { ptr }
%class.ptr_vector = type { %class.vector.6 }
%class.vector.6 = type { ptr }
%class.vector.7 = type { ptr }
%class.svector.8 = type { %class.vector.9 }
%class.vector.9 = type { ptr }
%class.svector.10 = type { %class.vector.11 }
%class.vector.11 = type { ptr }
%class.svector.2 = type { %class.vector.3 }
%class.vector.3 = type { ptr }
%class.svector.12 = type { %class.vector.13 }
%class.vector.13 = type { ptr }

@.str.2 = private unnamed_addr constant [22 x i8] c"bound_max_refinements\00", align 1
@.str.3 = private unnamed_addr constant [16 x i8] c"bound_threshold\00", align 1
@.str.4 = private unnamed_addr constant [21 x i8] c"bound_small_interval\00", align 1
@.str.5 = private unnamed_addr constant [14 x i8] c"strict2double\00", align 1

; Function Attrs: mustprogress uwtable
define hidden void @_ZN16bound_propagator11updt_paramsERK10params_ref(ptr noundef nonnull align 8 dereferenceable(280) %this, ptr noundef nonnull align 8 dereferenceable(8) %p) #4 align 2 {
entry:
  %this.addr = alloca ptr, align 8
  %p.addr = alloca ptr, align 8
  store ptr %this, ptr %this.addr, align 8
  store ptr %p, ptr %p.addr, align 8
  %this1 = load ptr, ptr %this.addr, align 8
  %0 = load ptr, ptr %p.addr, align 8
  %call = call noundef i32 @_ZNK10params_ref8get_uintEPKcj(ptr noundef nonnull align 8 dereferenceable(8) %0, ptr noundef @.str.2, i32 noundef 16)
  %m_max_refinements = getelementptr inbounds %class.bound_propagator, ptr %this1, i32 0, i32 19
  store i32 %call, ptr %m_max_refinements, align 8
  %1 = load ptr, ptr %p.addr, align 8
  %call2 = call noundef double @_ZNK10params_ref10get_doubleEPKcd(ptr noundef nonnull align 8 dereferenceable(8) %1, ptr noundef @.str.3, double noundef 5.000000e-02)
  %m_threshold = getelementptr inbounds %class.bound_propagator, ptr %this1, i32 0, i32 21
  store double %call2, ptr %m_threshold, align 8
  %2 = load ptr, ptr %p.addr, align 8
  %call3 = call noundef double @_ZNK10params_ref10get_doubleEPKcd(ptr noundef nonnull align 8 dereferenceable(8) %2, ptr noundef @.str.4, double noundef 1.280000e+02)
  %m_small_interval = getelementptr inbounds %class.bound_propagator, ptr %this1, i32 0, i32 20
  store double %call3, ptr %m_small_interval, align 8
  %3 = load ptr, ptr %p.addr, align 8
  %call4 = call noundef double @_ZNK10params_ref10get_doubleEPKcd(ptr noundef nonnull align 8 dereferenceable(8) %3, ptr noundef @.str.5, double noundef 1.000000e-05)
  %m_strict2double = getelementptr inbounds %class.bound_propagator, ptr %this1, i32 0, i32 22
  store double %call4, ptr %m_strict2double, align 8
  ret void
}