; Function Attrs: mustprogress uwtable
define hidden void @_ZN16bound_propagator11updt_paramsERK10params_ref(ptr nocapture noundef nonnull writeonly align 8 dereferenceable(280) %this, ptr noundef nonnull align 8 dereferenceable(8) %p) local_unnamed_addr #3 align 2 {
entry:
  %call = tail call noundef i32 @_ZNK10params_ref8get_uintEPKcj(ptr noundef nonnull align 8 dereferenceable(8) %p, ptr noundef nonnull @.str.2, i32 noundef 16)
  %m_max_refinements = getelementptr inbounds i8, ptr %this, i64 224
  store i32 %call, ptr %m_max_refinements, align 8
  %call2 = tail call noundef double @_ZNK10params_ref10get_doubleEPKcd(ptr noundef nonnull align 8 dereferenceable(8) %p, ptr noundef nonnull @.str.3, double noundef 5.000000e-02)
  %m_threshold = getelementptr inbounds i8, ptr %this, i64 240
  store double %call2, ptr %m_threshold, align 8
  %call3 = tail call noundef double @_ZNK10params_ref10get_doubleEPKcd(ptr noundef nonnull align 8 dereferenceable(8) %p, ptr noundef nonnull @.str.4, double noundef 1.280000e+02)
  %m_small_interval = getelementptr inbounds i8, ptr %this, i64 232
  store double %call3, ptr %m_small_interval, align 8
  %call4 = tail call noundef double @_ZNK10params_ref10get_doubleEPKcd(ptr noundef nonnull align 8 dereferenceable(8) %p, ptr noundef nonnull @.str.5, double noundef 1.000000e-05)
  %m_strict2double = getelementptr inbounds i8, ptr %this, i64 248
  store double %call4, ptr %m_strict2double, align 8
  ret void
}